#include <math.h>
#include <stdio.h>
#include <stdlib.h>
#include <string.h>


int main()
{
    int f(int n,int k);
    int n,k;
    scanf("%d %d",&n,&k);
	printf("%d\n",f(n,k));
	return 0;
}
int f(int n,int k)
{
	double s,x;
    int i,j,m;
    for(j=1;;j++){
             s=n*j+k;
	         for(i=2;i<=n;i++){
                 s=n*(s/(n-1))+k;
                 m=(int)s;
                 x=s-m;
                 if(x!=0){
                    break;}             
             }
             m=(int)s;
             x=s-m;
             if(x==0){
                    break;}
    }
    return s;
}

